target datalayout = "e-m:e-p270:32:32-p271:32:32-p272:64:64-i64:64-i128:128-f80:128-n8:16:32:64-S128"
target triple = "x86_64-pc-linux-gnu"

%"class.g2o::MatrixStructure" = type { i32, i32, ptr, ptr, i32, i32 }

; Function Attrs: mustprogress nounwind uwtable
define void @_ZN3g2o15MatrixStructure4freeEv(ptr noundef nonnull align 8 dereferenceable(32) %0) #0 align 2 {
  %2 = alloca ptr, align 8
  store ptr %0, ptr %2, align 8, !tbaa !3
  %3 = load ptr, ptr %2, align 8
  %4 = getelementptr inbounds nuw %"class.g2o::MatrixStructure", ptr %3, i32 0, i32 0
  store i32 0, ptr %4, align 8, !tbaa !8
  %5 = getelementptr inbounds nuw %"class.g2o::MatrixStructure", ptr %3, i32 0, i32 1
  store i32 0, ptr %5, align 4, !tbaa !12
  %6 = getelementptr inbounds nuw %"class.g2o::MatrixStructure", ptr %3, i32 0, i32 4
  store i32 0, ptr %6, align 8, !tbaa !15
  %7 = getelementptr inbounds nuw %"class.g2o::MatrixStructure", ptr %3, i32 0, i32 5
  store i32 0, ptr %7, align 4, !tbaa !16
  %8 = getelementptr inbounds nuw %"class.g2o::MatrixStructure", ptr %3, i32 0, i32 3
  %9 = load ptr, ptr %8, align 8, !tbaa !14
  %10 = icmp eq ptr %9, null
  br i1 %10, label %12, label %11

11:                                               ; preds = %1
  call void @_ZdaPv(ptr noundef %9) #16
  br label %12

12:                                               ; preds = %11, %1
  %13 = getelementptr inbounds nuw %"class.g2o::MatrixStructure", ptr %3, i32 0, i32 3
  store ptr null, ptr %13, align 8, !tbaa !14
  %14 = getelementptr inbounds nuw %"class.g2o::MatrixStructure", ptr %3, i32 0, i32 2
  %15 = load ptr, ptr %14, align 8, !tbaa !13
  %16 = icmp eq ptr %15, null
  br i1 %16, label %18, label %17

17:                                               ; preds = %12
  call void @_ZdaPv(ptr noundef %15) #16
  br label %18

18:                                               ; preds = %17, %12
  %19 = getelementptr inbounds nuw %"class.g2o::MatrixStructure", ptr %3, i32 0, i32 2
  store ptr null, ptr %19, align 8, !tbaa !13
  ret void
}