; Function Attrs: mustprogress nounwind uwtable
define void @_ZN3g2o15MatrixStructure4freeEv(ptr noundef nonnull align 8 captures(none) dereferenceable(32) initializes((0, 8), (24, 32)) %0) local_unnamed_addr #1 align 2 {
  store i32 0, ptr %0, align 8, !tbaa !3
  %2 = getelementptr inbounds nuw i8, ptr %0, i64 4
  store i32 0, ptr %2, align 4, !tbaa !10
  %3 = getelementptr inbounds nuw i8, ptr %0, i64 24
  store i32 0, ptr %3, align 8, !tbaa !11
  %4 = getelementptr inbounds nuw i8, ptr %0, i64 28
  store i32 0, ptr %4, align 4, !tbaa !12
  %5 = getelementptr inbounds nuw i8, ptr %0, i64 16
  %6 = load ptr, ptr %5, align 8, !tbaa !13
  %7 = icmp eq ptr %6, null
  br i1 %7, label %9, label %8

8:                                                ; preds = %1
  tail call void @_ZdaPv(ptr noundef nonnull %6) #14
  br label %9

9:                                                ; preds = %8, %1
  store ptr null, ptr %5, align 8, !tbaa !13
  %10 = getelementptr inbounds nuw i8, ptr %0, i64 8
  %11 = load ptr, ptr %10, align 8, !tbaa !14
  %12 = icmp eq ptr %11, null
  br i1 %12, label %14, label %13

13:                                               ; preds = %9
  tail call void @_ZdaPv(ptr noundef nonnull %11) #14
  br label %14

14:                                               ; preds = %13, %9
  store ptr null, ptr %10, align 8, !tbaa !14
  ret void
}